; Function Attrs: mustprogress uwtable
define internal noundef zeroext i1 @_ZN12_GLOBAL__N_128HandleHasRelativePartCommandERKSt6vectorINSt7__cxx1112basic_stringIcSt11char_traitsIcESaIcEEESaIS6_EER17cmExecutionStatus(ptr noundef nonnull readonly align 8 captures(none) dereferenceable(24) %0, ptr noundef nonnull align 8 dereferenceable(80) %1) #3 personality ptr @__gxx_personality_v0 {
  %3 = alloca %"class.std::function.329", align 8
  %4 = getelementptr inbounds nuw i8, ptr %3, i64 16
  %5 = getelementptr inbounds nuw i8, ptr %3, i64 24
  call void @llvm.memset.p0.i64(ptr noundef nonnull align 8 dereferenceable(32) %3, i8 0, i64 16, i1 false)
  store ptr @"_ZNSt17_Function_handlerIFbRK11cmCMakePathEZN12_GLOBAL__N_128HandleHasRelativePartCommandERKSt6vectorINSt7__cxx1112basic_stringIcSt11char_traitsIcESaIcEEESaISB_EER17cmExecutionStatusE3$_0E9_M_invokeERKSt9_Any_dataS2_", ptr %5, align 8
  store ptr @"_ZNSt17_Function_handlerIFbRK11cmCMakePathEZN12_GLOBAL__N_128HandleHasRelativePartCommandERKSt6vectorINSt7__cxx1112basic_stringIcSt11char_traitsIcESaIcEEESaISB_EER17cmExecutionStatusE3$_0E10_M_managerERSt9_Any_dataRKSK_St18_Manager_operation", ptr %4, align 8
  %6 = invoke fastcc noundef zeroext i1 @_ZN12_GLOBAL__N_120HandleHasItemCommandERKSt6vectorINSt7__cxx1112basic_stringIcSt11char_traitsIcESaIcEEESaIS6_EER17cmExecutionStatusRKSt8functionIFbRK11cmCMakePathEE(ptr noundef nonnull align 8 dereferenceable(24) %0, ptr noundef nonnull align 8 dereferenceable(80) %1, ptr noundef nonnull align 8 dereferenceable(32) %3)
          to label %7 unwind label %14

7:                                                ; preds = %2
  %8 = load ptr, ptr %4, align 8
  %.not.i.i = icmp eq ptr %8, null
  br i1 %.not.i.i, label %_ZNSt8functionIFbRK11cmCMakePathEED2Ev.exit, label %9

9:                                                ; preds = %7
  %10 = invoke noundef zeroext i1 %8(ptr noundef nonnull align 8 dereferenceable(32) %3, ptr noundef nonnull align 8 dereferenceable(32) %3, i32 noundef 3)
          to label %_ZNSt8functionIFbRK11cmCMakePathEED2Ev.exit unwind label %11

11:                                               ; preds = %9
  %12 = landingpad { ptr, i32 }
          catch ptr null
  %13 = extractvalue { ptr, i32 } %12, 0
  call void @__clang_call_terminate(ptr %13) #22
  unreachable

_ZNSt8functionIFbRK11cmCMakePathEED2Ev.exit:      ; preds = %7, %9
  ret i1 %6

14:                                               ; preds = %2
  %15 = landingpad { ptr, i32 }
          cleanup
  %16 = load ptr, ptr %4, align 8
  %.not.i.i3 = icmp eq ptr %16, null
  br i1 %.not.i.i3, label %_ZNSt8functionIFbRK11cmCMakePathEED2Ev.exit4, label %17

17:                                               ; preds = %14
  %18 = invoke noundef zeroext i1 %16(ptr noundef nonnull align 8 dereferenceable(32) %3, ptr noundef nonnull align 8 dereferenceable(32) %3, i32 noundef 3)
          to label %_ZNSt8functionIFbRK11cmCMakePathEED2Ev.exit4 unwind label %19

19:                                               ; preds = %17
  %20 = landingpad { ptr, i32 }
          catch ptr null
  %21 = extractvalue { ptr, i32 } %20, 0
  call void @__clang_call_terminate(ptr %21) #22
  unreachable

_ZNSt8functionIFbRK11cmCMakePathEED2Ev.exit4:     ; preds = %14, %17
  resume { ptr, i32 } %15
}